; ModuleID = '11/632.c'
source_filename = "11/632.c"
target datalayout = "e-m:e-p270:32:32-p271:32:32-p272:64:64-i64:64-f80:128-n8:16:32:64-S128"
target triple = "x86_64-pc-linux-gnu"

@__const.main.a = private unnamed_addr constant [13 x i32] [i32 0, i32 31, i32 28, i32 31, i32 30, i32 31, i32 30, i32 31, i32 31, i32 30, i32 31, i32 30, i32 31], align 16
@__const.main.b = private unnamed_addr constant [13 x i32] [i32 0, i32 31, i32 29, i32 31, i32 30, i32 31, i32 30, i32 31, i32 31, i32 30, i32 31, i32 30, i32 31], align 16
@.str = private unnamed_addr constant [9 x i8] c"%d %d %d\00", align 1
@.str.1 = private unnamed_addr constant [3 x i8] c"%d\00", align 1

; Function Attrs: noinline nounwind uwtable
define dso_local i32 @leap(i32 %0) #0 {
  %2 = alloca i32, align 4
  %3 = alloca i32, align 4
  store i32 %0, i32* %3, align 4
  %4 = load i32, i32* %3, align 4
  %5 = srem i32 %4, 4
  %6 = icmp eq i32 %5, 0
  br i1 %6, label %7, label %11

7:                                                ; preds = %1
  %8 = load i32, i32* %3, align 4
  %9 = srem i32 %8, 100
  %10 = icmp ne i32 %9, 0
  br i1 %10, label %15, label %11

11:                                               ; preds = %7, %1
  %12 = load i32, i32* %3, align 4
  %13 = srem i32 %12, 400
  %14 = icmp eq i32 %13, 0
  br i1 %14, label %15, label %16

15:                                               ; preds = %11, %7
  store i32 1, i32* %2, align 4
  br label %17

16:                                               ; preds = %11
  store i32 0, i32* %2, align 4
  br label %17

17:                                               ; preds = %16, %15
  %18 = load i32, i32* %2, align 4
  ret i32 %18
}

; Function Attrs: noinline nounwind uwtable
define dso_local void @main() #0 {
  %1 = alloca i32, align 4
  %2 = alloca i32, align 4
  %3 = alloca i32, align 4
  %4 = alloca i32, align 4
  %5 = alloca i32, align 4
  %6 = alloca i32, align 4
  %7 = alloca [13 x i32], align 16
  %8 = alloca [13 x i32], align 16
  store i32 0, i32* %5, align 4
  %9 = bitcast [13 x i32]* %7 to i8*
  call void @llvm.memcpy.p0i8.p0i8.i64(i8* align 16 %9, i8* align 16 bitcast ([13 x i32]* @__const.main.a to i8*), i64 52, i1 false)
  %10 = bitcast [13 x i32]* %8 to i8*
  call void @llvm.memcpy.p0i8.p0i8.i64(i8* align 16 %10, i8* align 16 bitcast ([13 x i32]* @__const.main.b to i8*), i64 52, i1 false)
  %11 = call i32 (i8*, ...) @__isoc99_scanf(i8* getelementptr inbounds ([9 x i8], [9 x i8]* @.str, i64 0, i64 0), i32* %1, i32* %2, i32* %3)
  %12 = load i32, i32* %1, align 4
  %13 = call i32 @leap(i32 %12)
  store i32 %13, i32* %4, align 4
  %14 = load i32, i32* %4, align 4
  %15 = icmp eq i32 %14, 1
  br i1 %15, label %16, label %35

16:                                               ; preds = %0
  store i32 1, i32* %6, align 4
  br label %17

17:                                               ; preds = %28, %16
  %18 = load i32, i32* %6, align 4
  %19 = load i32, i32* %2, align 4
  %20 = icmp slt i32 %18, %19
  br i1 %20, label %21, label %31

21:                                               ; preds = %17
  %22 = load i32, i32* %6, align 4
  %23 = sext i32 %22 to i64
  %24 = getelementptr inbounds [13 x i32], [13 x i32]* %8, i64 0, i64 %23
  %25 = load i32, i32* %24, align 4
  %26 = load i32, i32* %5, align 4
  %27 = add nsw i32 %26, %25
  store i32 %27, i32* %5, align 4
  br label %28

28:                                               ; preds = %21
  %29 = load i32, i32* %6, align 4
  %30 = add nsw i32 %29, 1
  store i32 %30, i32* %6, align 4
  br label %17

31:                                               ; preds = %17
  %32 = load i32, i32* %3, align 4
  %33 = load i32, i32* %5, align 4
  %34 = add nsw i32 %33, %32
  store i32 %34, i32* %5, align 4
  br label %54

35:                                               ; preds = %0
  store i32 1, i32* %6, align 4
  br label %36

36:                                               ; preds = %47, %35
  %37 = load i32, i32* %6, align 4
  %38 = load i32, i32* %2, align 4
  %39 = icmp slt i32 %37, %38
  br i1 %39, label %40, label %50

40:                                               ; preds = %36
  %41 = load i32, i32* %6, align 4
  %42 = sext i32 %41 to i64
  %43 = getelementptr inbounds [13 x i32], [13 x i32]* %7, i64 0, i64 %42
  %44 = load i32, i32* %43, align 4
  %45 = load i32, i32* %5, align 4
  %46 = add nsw i32 %45, %44
  store i32 %46, i32* %5, align 4
  br label %47

47:                                               ; preds = %40
  %48 = load i32, i32* %6, align 4
  %49 = add nsw i32 %48, 1
  store i32 %49, i32* %6, align 4
  br label %36

50:                                               ; preds = %36
  %51 = load i32, i32* %3, align 4
  %52 = load i32, i32* %5, align 4
  %53 = add nsw i32 %52, %51
  store i32 %53, i32* %5, align 4
  br label %54

54:                                               ; preds = %50, %31
  %55 = load i32, i32* %5, align 4
  %56 = call i32 (i8*, ...) @printf(i8* getelementptr inbounds ([3 x i8], [3 x i8]* @.str.1, i64 0, i64 0), i32 %55)
  ret void
}

; Function Attrs: argmemonly nounwind willreturn
declare void @llvm.memcpy.p0i8.p0i8.i64(i8* noalias nocapture writeonly, i8* noalias nocapture readonly, i64, i1 immarg) #1

declare dso_local i32 @__isoc99_scanf(i8*, ...) #2

declare dso_local i32 @printf(i8*, ...) #2


!llvm.module.flags = !{!0}
!llvm.ident = !{!1}

!0 = !{i32 1, !"wchar_size", i32 4}
!1 = !{!"clang version 10.0.0-4ubuntu1 "}
